target datalayout = "e-m:e-p270:32:32-p271:32:32-p272:64:64-i64:64-i128:128-f80:128-n8:16:32:64-S128"
target triple = "x86_64-pc-linux-gnu"

%struct.ssl3_enc_method = type { ptr, ptr, ptr }
%struct.ssl_st = type { i32, i16, i16, ptr, ptr, ptr, ptr, ptr, i32, i32, ptr, ptr, i32, i32, ptr, ptr, ptr, ptr, ptr, ptr, ptr, ptr, i32, i32, [32 x i8], ptr, ptr, ptr, ptr, ptr, ptr, ptr, i64, %struct.crypto_ex_data_st, ptr, i32, i32, i32, i32, i16, ptr, i32, i64, ptr, ptr, ptr, ptr, ptr, ptr, i32, i32, ptr, ptr, i8, i8, i32 }
%struct.crypto_ex_data_st = type { ptr }
%struct.ssl3_state_st = type { [8 x i8], [8 x i8], [32 x i8], [32 x i8], i8, i8, %struct.ssl3_buffer_st, %struct.ssl3_buffer_st, %struct.ssl3_record_st, i8, i32, i32, i32, i32, ptr, ptr, %struct.env_md_ctx_st, %struct.env_md_ctx_st, i8, i32, [2 x i8], i32, i8, i8, ptr, ptr, ptr, %struct.anon, [64 x i8], i8, [64 x i8], i8, i32, i32, ptr, i64, ptr, i64, i8, [64 x i8] }
%struct.ssl3_buffer_st = type { ptr, i16, i16, i16 }
%struct.ssl3_record_st = type { i8, i16, ptr }
%struct.env_md_ctx_st = type { ptr, ptr, ptr, ptr }
%struct.anon = type { [64 x i8], i32, [64 x i8], i32, i64, i32, ptr, i32, i32, %union.anon, %union.anon.0, i8, i32, ptr, ptr, i64, ptr, i8, i8, i8, i8, i32, i8, ptr, i64, i8, ptr, i8, i8, i8, %struct.ssl_ecdh_ctx_st, ptr, i16 }
%union.anon = type { i32 }
%union.anon.0 = type { i16 }
%struct.ssl_ecdh_ctx_st = type { ptr, ptr }
%struct.ssl_session_st = type { i32, i32, i32, i32, [48 x i8], i32, [32 x i8], i32, [32 x i8], ptr, ptr, ptr, i64, i64, i64, ptr, %struct.crypto_ex_data_st, ptr, ptr, ptr, ptr, i64, i64, ptr, i64, ptr, [32 x i8], [64 x i8], i32, i32, i8 }

@.str.1 = private unnamed_addr constant [116 x i8] c"generated/home/dtcxzyw/WorkSpace/Projects/compilers/llvm-opt-benchmark/bench/libquic/libquic/boringssl/ssl/t1_enc.c\00", align 1

; Function Attrs: nounwind uwtable
define hidden i32 @SSL_export_keying_material(ptr noundef %0, ptr noundef %1, i64 noundef %2, ptr noundef %3, i64 noundef %4, ptr noundef %5, i64 noundef %6, i32 noundef %7) #0 {
  %9 = alloca i32, align 4
  %10 = alloca ptr, align 8
  %11 = alloca ptr, align 8
  %12 = alloca i64, align 8
  %13 = alloca ptr, align 8
  %14 = alloca i64, align 8
  %15 = alloca ptr, align 8
  %16 = alloca i64, align 8
  %17 = alloca i32, align 4
  %18 = alloca i64, align 8
  %19 = alloca i32, align 4
  %20 = alloca ptr, align 8
  %21 = alloca i32, align 4
  store ptr %0, ptr %10, align 8, !tbaa !6
  store ptr %1, ptr %11, align 8, !tbaa !57
  store i64 %2, ptr %12, align 8, !tbaa !53
  store ptr %3, ptr %13, align 8, !tbaa !57
  store i64 %4, ptr %14, align 8, !tbaa !53
  store ptr %5, ptr %15, align 8, !tbaa !57
  store i64 %6, ptr %16, align 8, !tbaa !53
  store i32 %7, ptr %17, align 4, !tbaa !11
  %22 = load ptr, ptr %10, align 8, !tbaa !6
  %23 = getelementptr inbounds nuw %struct.ssl_st, ptr %22, i32 0, i32 14
  %24 = load ptr, ptr %23, align 8, !tbaa !14
  %25 = getelementptr inbounds nuw %struct.ssl3_state_st, ptr %24, i32 0, i32 4
  %26 = load i8, ptr %25, align 8, !tbaa !76
  %27 = icmp ne i8 %26, 0
  br i1 %27, label %28, label %33

28:                                               ; preds = %8
  %29 = load ptr, ptr %10, align 8, !tbaa !6
  %30 = getelementptr inbounds nuw %struct.ssl_st, ptr %29, i32 0, i32 0
  %31 = load i32, ptr %30, align 8, !tbaa !77
  %32 = icmp eq i32 %31, 768
  br i1 %32, label %33, label %34

33:                                               ; preds = %28, %8
  store i32 0, ptr %9, align 4
  br label %114

34:                                               ; preds = %28
  call void @llvm.lifetime.start.p0(i64 8, ptr %18) #7
  store i64 64, ptr %18, align 8, !tbaa !53
  %35 = load i32, ptr %17, align 4, !tbaa !11
  %36 = icmp ne i32 %35, 0
  br i1 %36, label %37, label %46

37:                                               ; preds = %34
  %38 = load i64, ptr %16, align 8, !tbaa !53
  %39 = icmp uge i64 %38, 65536
  br i1 %39, label %40, label %41

40:                                               ; preds = %37
  call void @ERR_put_error(i32 noundef 16, i32 noundef 0, i32 noundef 69, ptr noundef @.str.1, i32 noundef 531)
  store i32 0, ptr %9, align 4
  store i32 1, ptr %19, align 4
  br label %113

41:                                               ; preds = %37
  %42 = load i64, ptr %16, align 8, !tbaa !53
  %43 = add i64 2, %42
  %44 = load i64, ptr %18, align 8, !tbaa !53
  %45 = add i64 %44, %43
  store i64 %45, ptr %18, align 8, !tbaa !53
  br label %46

46:                                               ; preds = %41, %34
  call void @llvm.lifetime.start.p0(i64 8, ptr %20) #7
  %47 = load i64, ptr %18, align 8, !tbaa !53
  %48 = call noalias ptr @malloc(i64 noundef %47) #8
  store ptr %48, ptr %20, align 8, !tbaa !57
  %49 = load ptr, ptr %20, align 8, !tbaa !57
  %50 = icmp eq ptr %49, null
  br i1 %50, label %51, label %52

51:                                               ; preds = %46
  call void @ERR_put_error(i32 noundef 16, i32 noundef 0, i32 noundef 65, ptr noundef @.str.1, i32 noundef 538)
  store i32 0, ptr %9, align 4
  store i32 1, ptr %19, align 4
  br label %112

52:                                               ; preds = %46
  %53 = load ptr, ptr %20, align 8, !tbaa !57
  %54 = load ptr, ptr %10, align 8, !tbaa !6
  %55 = getelementptr inbounds nuw %struct.ssl_st, ptr %54, i32 0, i32 14
  %56 = load ptr, ptr %55, align 8, !tbaa !14
  %57 = getelementptr inbounds nuw %struct.ssl3_state_st, ptr %56, i32 0, i32 3
  %58 = getelementptr inbounds [32 x i8], ptr %57, i64 0, i64 0
  call void @llvm.memcpy.p0.p0.i64(ptr align 1 %53, ptr align 8 %58, i64 32, i1 false)
  %59 = load ptr, ptr %20, align 8, !tbaa !57
  %60 = getelementptr inbounds i8, ptr %59, i64 32
  %61 = load ptr, ptr %10, align 8, !tbaa !6
  %62 = getelementptr inbounds nuw %struct.ssl_st, ptr %61, i32 0, i32 14
  %63 = load ptr, ptr %62, align 8, !tbaa !14
  %64 = getelementptr inbounds nuw %struct.ssl3_state_st, ptr %63, i32 0, i32 2
  %65 = getelementptr inbounds [32 x i8], ptr %64, i64 0, i64 0
  call void @llvm.memcpy.p0.p0.i64(ptr align 1 %60, ptr align 8 %65, i64 32, i1 false)
  %66 = load i32, ptr %17, align 4, !tbaa !11
  %67 = icmp ne i32 %66, 0
  br i1 %67, label %68, label %83

68:                                               ; preds = %52
  %69 = load i64, ptr %16, align 8, !tbaa !53
  %70 = lshr i64 %69, 8
  %71 = trunc i64 %70 to i8
  %72 = load ptr, ptr %20, align 8, !tbaa !57
  %73 = getelementptr inbounds i8, ptr %72, i64 64
  store i8 %71, ptr %73, align 1, !tbaa !13
  %74 = load i64, ptr %16, align 8, !tbaa !53
  %75 = trunc i64 %74 to i8
  %76 = load ptr, ptr %20, align 8, !tbaa !57
  %77 = getelementptr inbounds i8, ptr %76, i64 65
  store i8 %75, ptr %77, align 1, !tbaa !13
  %78 = load ptr, ptr %20, align 8, !tbaa !57
  %79 = getelementptr inbounds i8, ptr %78, i64 64
  %80 = getelementptr inbounds i8, ptr %79, i64 2
  %81 = load ptr, ptr %15, align 8, !tbaa !57
  %82 = load i64, ptr %16, align 8, !tbaa !53
  call void @llvm.memcpy.p0.p0.i64(ptr align 1 %80, ptr align 1 %81, i64 %82, i1 false)
  br label %83

83:                                               ; preds = %68, %52
  call void @llvm.lifetime.start.p0(i64 4, ptr %21) #7
  %84 = load ptr, ptr %10, align 8, !tbaa !6
  %85 = getelementptr inbounds nuw %struct.ssl_st, ptr %84, i32 0, i32 14
  %86 = load ptr, ptr %85, align 8, !tbaa !14
  %87 = getelementptr inbounds nuw %struct.ssl3_state_st, ptr %86, i32 0, i32 26
  %88 = load ptr, ptr %87, align 8, !tbaa !68
  %89 = getelementptr inbounds nuw %struct.ssl3_enc_method, ptr %88, i32 0, i32 0
  %90 = load ptr, ptr %89, align 8, !tbaa !69
  %91 = load ptr, ptr %10, align 8, !tbaa !6
  %92 = load ptr, ptr %11, align 8, !tbaa !57
  %93 = load i64, ptr %12, align 8, !tbaa !53
  %94 = load ptr, ptr %10, align 8, !tbaa !6
  %95 = getelementptr inbounds nuw %struct.ssl_st, ptr %94, i32 0, i32 25
  %96 = load ptr, ptr %95, align 8, !tbaa !63
  %97 = getelementptr inbounds nuw %struct.ssl_session_st, ptr %96, i32 0, i32 4
  %98 = getelementptr inbounds [48 x i8], ptr %97, i64 0, i64 0
  %99 = load ptr, ptr %10, align 8, !tbaa !6
  %100 = getelementptr inbounds nuw %struct.ssl_st, ptr %99, i32 0, i32 25
  %101 = load ptr, ptr %100, align 8, !tbaa !63
  %102 = getelementptr inbounds nuw %struct.ssl_session_st, ptr %101, i32 0, i32 3
  %103 = load i32, ptr %102, align 4, !tbaa !71
  %104 = sext i32 %103 to i64
  %105 = load ptr, ptr %13, align 8, !tbaa !57
  %106 = load i64, ptr %14, align 8, !tbaa !53
  %107 = load ptr, ptr %20, align 8, !tbaa !57
  %108 = load i64, ptr %18, align 8, !tbaa !53
  %109 = call i32 %90(ptr noundef %91, ptr noundef %92, i64 noundef %93, ptr noundef %98, i64 noundef %104, ptr noundef %105, i64 noundef %106, ptr noundef %107, i64 noundef %108, ptr noundef null, i64 noundef 0)
  store i32 %109, ptr %21, align 4, !tbaa !11
  %110 = load ptr, ptr %20, align 8, !tbaa !57
  call void @free(ptr noundef %110) #7
  %111 = load i32, ptr %21, align 4, !tbaa !11
  store i32 %111, ptr %9, align 4
  store i32 1, ptr %19, align 4
  call void @llvm.lifetime.end.p0(i64 4, ptr %21) #7
  br label %112

112:                                              ; preds = %83, %51
  call void @llvm.lifetime.end.p0(i64 8, ptr %20) #7
  br label %113

113:                                              ; preds = %112, %40
  call void @llvm.lifetime.end.p0(i64 8, ptr %18) #7
  br label %114

114:                                              ; preds = %113, %33
  %115 = load i32, ptr %9, align 4
  ret i32 %115
}