; Function Attrs: nounwind uwtable
define hidden i32 @SSL_export_keying_material(ptr noundef %0, ptr noundef %1, i64 noundef %2, ptr noundef %3, i64 noundef %4, ptr noundef readonly captures(none) %5, i64 noundef %6, i32 noundef %7) local_unnamed_addr #0 {
  %9 = getelementptr inbounds nuw i8, ptr %0, i64 80
  %10 = load ptr, ptr %9, align 8, !tbaa !6
  %11 = getelementptr inbounds nuw i8, ptr %10, i64 80
  %12 = load i8, ptr %11, align 8, !tbaa !68
  %.not = icmp eq i8 %12, 0
  br i1 %.not, label %48, label %13

13:                                               ; preds = %8
  %14 = load i32, ptr %0, align 8, !tbaa !69
  %15 = icmp eq i32 %14, 768
  br i1 %15, label %48, label %16

16:                                               ; preds = %13
  %.not35 = icmp eq i32 %7, 0
  br i1 %.not35, label %22, label %17

17:                                               ; preds = %16
  %18 = icmp ugt i64 %6, 65535
  br i1 %18, label %19, label %20

19:                                               ; preds = %17
  tail call void @ERR_put_error(i32 noundef 16, i32 noundef 0, i32 noundef 69, ptr noundef nonnull @.str.1, i32 noundef 531) #8
  br label %48

20:                                               ; preds = %17
  %21 = add nuw nsw i64 %6, 66
  br label %22

22:                                               ; preds = %20, %16
  %.032 = phi i64 [ %21, %20 ], [ 64, %16 ]
  %23 = tail call noalias ptr @malloc(i64 noundef %.032) #9
  %24 = icmp eq ptr %23, null
  br i1 %24, label %25, label %26

25:                                               ; preds = %22
  tail call void @ERR_put_error(i32 noundef 16, i32 noundef 0, i32 noundef 65, ptr noundef nonnull @.str.1, i32 noundef 538) #8
  br label %48

26:                                               ; preds = %22
  %27 = getelementptr inbounds nuw i8, ptr %10, i64 48
  tail call void @llvm.memcpy.p0.p0.i64(ptr noundef nonnull align 1 dereferenceable(32) %23, ptr noundef nonnull align 8 dereferenceable(32) %27, i64 32, i1 false)
  %28 = getelementptr inbounds nuw i8, ptr %23, i64 32
  %29 = getelementptr inbounds nuw i8, ptr %10, i64 16
  tail call void @llvm.memcpy.p0.p0.i64(ptr noundef nonnull align 1 dereferenceable(32) %28, ptr noundef nonnull align 8 dereferenceable(32) %29, i64 32, i1 false)
  br i1 %.not35, label %37, label %30

30:                                               ; preds = %26
  %31 = lshr i64 %6, 8
  %32 = trunc i64 %31 to i8
  %33 = getelementptr inbounds nuw i8, ptr %23, i64 64
  store i8 %32, ptr %33, align 1, !tbaa !70
  %34 = trunc i64 %6 to i8
  %35 = getelementptr inbounds nuw i8, ptr %23, i64 65
  store i8 %34, ptr %35, align 1, !tbaa !70
  %36 = getelementptr inbounds nuw i8, ptr %23, i64 66
  tail call void @llvm.memcpy.p0.p0.i64(ptr nonnull align 1 %36, ptr align 1 %5, i64 %6, i1 false)
  br label %37

37:                                               ; preds = %30, %26
  %38 = getelementptr inbounds nuw i8, ptr %10, i64 280
  %39 = load ptr, ptr %38, align 8, !tbaa !62
  %40 = load ptr, ptr %39, align 8, !tbaa !63
  %41 = getelementptr inbounds nuw i8, ptr %0, i64 184
  %42 = load ptr, ptr %41, align 8, !tbaa !56
  %43 = getelementptr inbounds nuw i8, ptr %42, i64 16
  %44 = getelementptr inbounds nuw i8, ptr %42, i64 12
  %45 = load i32, ptr %44, align 4, !tbaa !65
  %46 = sext i32 %45 to i64
  %47 = tail call i32 %40(ptr noundef nonnull %0, ptr noundef %1, i64 noundef %2, ptr noundef nonnull %43, i64 noundef %46, ptr noundef %3, i64 noundef %4, ptr noundef nonnull %23, i64 noundef %.032, ptr noundef null, i64 noundef 0) #8
  tail call void @free(ptr noundef nonnull %23) #8
  br label %48

48:                                               ; preds = %19, %37, %25, %8, %13
  %.0 = phi i32 [ 0, %13 ], [ 0, %8 ], [ 0, %19 ], [ 0, %25 ], [ %47, %37 ]
  ret i32 %.0
}